target datalayout = "e-m:e-p270:32:32-p271:32:32-p272:64:64-i64:64-i128:128-f80:128-n8:16:32:64-S128"
target triple = "x86_64-pc-linux-gnu"

%struct._psqlSettings = type { ptr, i32, ptr, i8, ptr, ptr, %struct.printQueryOpt, ptr, ptr, ptr, i8, i8, i32, i32, ptr, ptr, i8, [4 x ptr], i8, i32, ptr, i8, i32, ptr, ptr, i64, i64, i8, ptr, ptr, ptr, i8, i8, i8, i8, i8, i8, i8, i32, i32, i32, i32, i32, i32, i32, i32, ptr, ptr, ptr, i32, i8, i32 }
%struct.printQueryOpt = type { %struct.printTableOpt, ptr, ptr, ptr, i8, ptr, i32 }
%struct.printTableOpt = type { i32, i16, i32, i32, i16, i16, i32, i8, i8, i8, i8, i64, ptr, %struct.separator, %struct.separator, [2 x i8], i8, ptr, i32, i32, i32, i32, i32, i32 }
%struct.separator = type { ptr, i8 }

@pset = external global %struct._psqlSettings, align 8
@.str.3 = private unnamed_addr constant [15 x i8] c"server_version\00", align 1
@.str.8 = private unnamed_addr constant [7 x i8] c"DBNAME\00", align 1
@.str.9 = private unnamed_addr constant [8 x i8] c"SERVICE\00", align 1
@.str.10 = private unnamed_addr constant [5 x i8] c"USER\00", align 1
@.str.11 = private unnamed_addr constant [5 x i8] c"HOST\00", align 1
@.str.12 = private unnamed_addr constant [5 x i8] c"PORT\00", align 1
@.str.13 = private unnamed_addr constant [9 x i8] c"ENCODING\00", align 1
@.str.14 = private unnamed_addr constant [20 x i8] c"SERVER_VERSION_NAME\00", align 1
@.str.15 = private unnamed_addr constant [3 x i8] c"%d\00", align 1
@.str.16 = private unnamed_addr constant [19 x i8] c"SERVER_VERSION_NUM\00", align 1

; Function Attrs: nounwind uwtable
define dso_local void @SyncVariables() #0 {
  %1 = alloca [32 x i8], align 16
  %2 = alloca ptr, align 8
  call void @llvm.lifetime.start.p0(i64 32, ptr %1) #10
  call void @llvm.lifetime.start.p0(i64 8, ptr %2) #10
  %3 = load ptr, ptr @pset, align 8
  %4 = call i32 @PQclientEncoding(ptr noundef %3)
  store i32 %4, ptr getelementptr inbounds nuw (%struct._psqlSettings, ptr @pset, i32 0, i32 1), align 8
  %5 = load i32, ptr getelementptr inbounds nuw (%struct._psqlSettings, ptr @pset, i32 0, i32 1), align 8
  store i32 %5, ptr getelementptr inbounds nuw (%struct.printTableOpt, ptr getelementptr inbounds nuw (%struct._psqlSettings, ptr @pset, i32 0, i32 6), i32 0, i32 18), align 8
  %6 = load ptr, ptr @pset, align 8
  %7 = call i32 @PQserverVersion(ptr noundef %6)
  store i32 %7, ptr getelementptr inbounds nuw (%struct._psqlSettings, ptr @pset, i32 0, i32 22), align 4
  %8 = load i32, ptr getelementptr inbounds nuw (%struct._psqlSettings, ptr @pset, i32 0, i32 1), align 8
  call void @setFmtEncoding(i32 noundef %8)
  %9 = load ptr, ptr getelementptr inbounds nuw (%struct._psqlSettings, ptr @pset, i32 0, i32 29), align 8
  %10 = load ptr, ptr @pset, align 8
  %11 = call ptr @PQdb(ptr noundef %10)
  %12 = call zeroext i1 @SetVariable(ptr noundef %9, ptr noundef @.str.8, ptr noundef %11)
  %13 = load ptr, ptr getelementptr inbounds nuw (%struct._psqlSettings, ptr @pset, i32 0, i32 29), align 8
  %14 = load ptr, ptr @pset, align 8
  %15 = call ptr @PQservice(ptr noundef %14)
  %16 = call zeroext i1 @SetVariable(ptr noundef %13, ptr noundef @.str.9, ptr noundef %15)
  %17 = load ptr, ptr getelementptr inbounds nuw (%struct._psqlSettings, ptr @pset, i32 0, i32 29), align 8
  %18 = load ptr, ptr @pset, align 8
  %19 = call ptr @PQuser(ptr noundef %18)
  %20 = call zeroext i1 @SetVariable(ptr noundef %17, ptr noundef @.str.10, ptr noundef %19)
  %21 = load ptr, ptr getelementptr inbounds nuw (%struct._psqlSettings, ptr @pset, i32 0, i32 29), align 8
  %22 = load ptr, ptr @pset, align 8
  %23 = call ptr @PQhost(ptr noundef %22)
  %24 = call zeroext i1 @SetVariable(ptr noundef %21, ptr noundef @.str.11, ptr noundef %23)
  %25 = load ptr, ptr getelementptr inbounds nuw (%struct._psqlSettings, ptr @pset, i32 0, i32 29), align 8
  %26 = load ptr, ptr @pset, align 8
  %27 = call ptr @PQport(ptr noundef %26)
  %28 = call zeroext i1 @SetVariable(ptr noundef %25, ptr noundef @.str.12, ptr noundef %27)
  %29 = load ptr, ptr getelementptr inbounds nuw (%struct._psqlSettings, ptr @pset, i32 0, i32 29), align 8
  %30 = load i32, ptr getelementptr inbounds nuw (%struct._psqlSettings, ptr @pset, i32 0, i32 1), align 8
  %31 = call ptr @pg_encoding_to_char(i32 noundef %30)
  %32 = call zeroext i1 @SetVariable(ptr noundef %29, ptr noundef @.str.13, ptr noundef %31)
  %33 = load ptr, ptr @pset, align 8
  %34 = call ptr @PQparameterStatus(ptr noundef %33, ptr noundef @.str.3)
  store ptr %34, ptr %2, align 8
  %35 = load ptr, ptr %2, align 8
  %36 = icmp ne ptr %35, null
  br i1 %36, label %42, label %37

37:                                               ; preds = %0
  %38 = load i32, ptr getelementptr inbounds nuw (%struct._psqlSettings, ptr @pset, i32 0, i32 22), align 4
  %39 = getelementptr inbounds [32 x i8], ptr %1, i64 0, i64 0
  %40 = call ptr @formatPGVersionNumber(i32 noundef %38, i1 noundef zeroext true, ptr noundef %39, i64 noundef 32)
  %41 = getelementptr inbounds [32 x i8], ptr %1, i64 0, i64 0
  store ptr %41, ptr %2, align 8
  br label %42

42:                                               ; preds = %37, %0
  %43 = load ptr, ptr getelementptr inbounds nuw (%struct._psqlSettings, ptr @pset, i32 0, i32 29), align 8
  %44 = load ptr, ptr %2, align 8
  %45 = call zeroext i1 @SetVariable(ptr noundef %43, ptr noundef @.str.14, ptr noundef %44)
  %46 = getelementptr inbounds [32 x i8], ptr %1, i64 0, i64 0
  %47 = load i32, ptr getelementptr inbounds nuw (%struct._psqlSettings, ptr @pset, i32 0, i32 22), align 4
  %48 = call i32 (ptr, i64, ptr, ...) @pg_snprintf(ptr noundef %46, i64 noundef 32, ptr noundef @.str.15, i32 noundef %47)
  %49 = load ptr, ptr getelementptr inbounds nuw (%struct._psqlSettings, ptr @pset, i32 0, i32 29), align 8
  %50 = getelementptr inbounds [32 x i8], ptr %1, i64 0, i64 0
  %51 = call zeroext i1 @SetVariable(ptr noundef %49, ptr noundef @.str.16, ptr noundef %50)
  %52 = load ptr, ptr @pset, align 8
  %53 = load i32, ptr getelementptr inbounds nuw (%struct._psqlSettings, ptr @pset, i32 0, i32 49), align 8
  %54 = call i32 @PQsetErrorVerbosity(ptr noundef %52, i32 noundef %53)
  %55 = load ptr, ptr @pset, align 8
  %56 = load i32, ptr getelementptr inbounds nuw (%struct._psqlSettings, ptr @pset, i32 0, i32 51), align 8
  %57 = call i32 @PQsetErrorContextVisibility(ptr noundef %55, i32 noundef %56)
  call void @llvm.lifetime.end.p0(i64 8, ptr %2) #10
  call void @llvm.lifetime.end.p0(i64 32, ptr %1) #10
  ret void
}