; Function Attrs: nounwind uwtable
define dso_local void @SyncVariables() local_unnamed_addr #0 {
  %1 = alloca [32 x i8], align 16
  call void @llvm.lifetime.start.p0(i64 32, ptr nonnull %1) #16
  %2 = load ptr, ptr @pset, align 8
  %3 = tail call i32 @PQclientEncoding(ptr noundef %2) #16
  store i32 %3, ptr getelementptr inbounds nuw (i8, ptr @pset, i64 8), align 8
  store i32 %3, ptr getelementptr inbounds nuw (i8, ptr @pset, i64 144), align 8
  %4 = load ptr, ptr @pset, align 8
  %5 = tail call i32 @PQserverVersion(ptr noundef %4) #16
  store i32 %5, ptr getelementptr inbounds nuw (i8, ptr @pset, i64 332), align 4
  %6 = load i32, ptr getelementptr inbounds nuw (i8, ptr @pset, i64 8), align 8
  tail call void @setFmtEncoding(i32 noundef %6) #16
  %7 = load ptr, ptr getelementptr inbounds nuw (i8, ptr @pset, i64 384), align 8
  %8 = load ptr, ptr @pset, align 8
  %9 = tail call ptr @PQdb(ptr noundef %8) #16
  %10 = tail call zeroext i1 @SetVariable(ptr noundef %7, ptr noundef nonnull @.str.8, ptr noundef %9) #16
  %11 = load ptr, ptr getelementptr inbounds nuw (i8, ptr @pset, i64 384), align 8
  %12 = load ptr, ptr @pset, align 8
  %13 = tail call ptr @PQservice(ptr noundef %12) #16
  %14 = tail call zeroext i1 @SetVariable(ptr noundef %11, ptr noundef nonnull @.str.9, ptr noundef %13) #16
  %15 = load ptr, ptr getelementptr inbounds nuw (i8, ptr @pset, i64 384), align 8
  %16 = load ptr, ptr @pset, align 8
  %17 = tail call ptr @PQuser(ptr noundef %16) #16
  %18 = tail call zeroext i1 @SetVariable(ptr noundef %15, ptr noundef nonnull @.str.10, ptr noundef %17) #16
  %19 = load ptr, ptr getelementptr inbounds nuw (i8, ptr @pset, i64 384), align 8
  %20 = load ptr, ptr @pset, align 8
  %21 = tail call ptr @PQhost(ptr noundef %20) #16
  %22 = tail call zeroext i1 @SetVariable(ptr noundef %19, ptr noundef nonnull @.str.11, ptr noundef %21) #16
  %23 = load ptr, ptr getelementptr inbounds nuw (i8, ptr @pset, i64 384), align 8
  %24 = load ptr, ptr @pset, align 8
  %25 = tail call ptr @PQport(ptr noundef %24) #16
  %26 = tail call zeroext i1 @SetVariable(ptr noundef %23, ptr noundef nonnull @.str.12, ptr noundef %25) #16
  %27 = load ptr, ptr getelementptr inbounds nuw (i8, ptr @pset, i64 384), align 8
  %28 = load i32, ptr getelementptr inbounds nuw (i8, ptr @pset, i64 8), align 8
  %29 = tail call ptr @pg_encoding_to_char(i32 noundef %28) #16
  %30 = tail call zeroext i1 @SetVariable(ptr noundef %27, ptr noundef nonnull @.str.13, ptr noundef %29) #16
  %31 = load ptr, ptr @pset, align 8
  %32 = tail call ptr @PQparameterStatus(ptr noundef %31, ptr noundef nonnull @.str.3) #16
  %.not = icmp eq ptr %32, null
  br i1 %.not, label %33, label %36

33:                                               ; preds = %0
  %34 = load i32, ptr getelementptr inbounds nuw (i8, ptr @pset, i64 332), align 4
  %35 = call ptr @formatPGVersionNumber(i32 noundef %34, i1 noundef zeroext true, ptr noundef nonnull %1, i64 noundef 32) #16
  br label %36

36:                                               ; preds = %33, %0
  %.0 = phi ptr [ %32, %0 ], [ %1, %33 ]
  %37 = load ptr, ptr getelementptr inbounds nuw (i8, ptr @pset, i64 384), align 8
  %38 = call zeroext i1 @SetVariable(ptr noundef %37, ptr noundef nonnull @.str.14, ptr noundef nonnull %.0) #16
  %39 = load i32, ptr getelementptr inbounds nuw (i8, ptr @pset, i64 332), align 4
  %40 = call i32 (ptr, i64, ptr, ...) @pg_snprintf(ptr noundef nonnull %1, i64 noundef 32, ptr noundef nonnull @.str.15, i32 noundef %39) #16
  %41 = load ptr, ptr getelementptr inbounds nuw (i8, ptr @pset, i64 384), align 8
  %42 = call zeroext i1 @SetVariable(ptr noundef %41, ptr noundef nonnull @.str.16, ptr noundef nonnull %1) #16
  %43 = load ptr, ptr @pset, align 8
  %44 = load i32, ptr getelementptr inbounds nuw (i8, ptr @pset, i64 464), align 8
  %45 = call i32 @PQsetErrorVerbosity(ptr noundef %43, i32 noundef %44) #16
  %46 = load ptr, ptr @pset, align 8
  %47 = load i32, ptr getelementptr inbounds nuw (i8, ptr @pset, i64 472), align 8
  %48 = call i32 @PQsetErrorContextVisibility(ptr noundef %46, i32 noundef %47) #16
  call void @llvm.lifetime.end.p0(i64 32, ptr nonnull %1) #16
  ret void
}